; ModuleID = '33/2790.c'
source_filename = "33/2790.c"
target datalayout = "e-m:e-p270:32:32-p271:32:32-p272:64:64-i64:64-f80:128-n8:16:32:64-S128"
target triple = "x86_64-pc-linux-gnu"

@.str = private unnamed_addr constant [3 x i8] c"%d\00", align 1
@.str.1 = private unnamed_addr constant [3 x i8] c"%s\00", align 1
@.str.2 = private unnamed_addr constant [3 x i8] c"%c\00", align 1
@.str.3 = private unnamed_addr constant [2 x i8] c"\0A\00", align 1

; Function Attrs: noinline nounwind uwtable
define dso_local signext i8 @anti_base(i8 signext %0) #0 {
  %2 = alloca i8, align 1
  %3 = alloca i8, align 1
  store i8 %0, i8* %2, align 1
  %4 = load i8, i8* %2, align 1
  %5 = sext i8 %4 to i32
  %6 = icmp eq i32 %5, 65
  br i1 %6, label %7, label %8

7:                                                ; preds = %1
  store i8 84, i8* %3, align 1
  br label %8

8:                                                ; preds = %7, %1
  %9 = load i8, i8* %2, align 1
  %10 = sext i8 %9 to i32
  %11 = icmp eq i32 %10, 84
  br i1 %11, label %12, label %13

12:                                               ; preds = %8
  store i8 65, i8* %3, align 1
  br label %13

13:                                               ; preds = %12, %8
  %14 = load i8, i8* %2, align 1
  %15 = sext i8 %14 to i32
  %16 = icmp eq i32 %15, 71
  br i1 %16, label %17, label %18

17:                                               ; preds = %13
  store i8 67, i8* %3, align 1
  br label %18

18:                                               ; preds = %17, %13
  %19 = load i8, i8* %2, align 1
  %20 = sext i8 %19 to i32
  %21 = icmp eq i32 %20, 67
  br i1 %21, label %22, label %23

22:                                               ; preds = %18
  store i8 71, i8* %3, align 1
  br label %23

23:                                               ; preds = %22, %18
  %24 = load i8, i8* %3, align 1
  ret i8 %24
}

; Function Attrs: noinline nounwind uwtable
define dso_local i32 @main() #0 {
  %1 = alloca i32, align 4
  %2 = alloca i32, align 4
  %3 = alloca i32, align 4
  %4 = alloca i32, align 4
  %5 = alloca i8*, align 8
  %6 = alloca i64, align 8
  %7 = alloca i8, align 1
  store i32 0, i32* %1, align 4
  %8 = call i32 (i8*, ...) @__isoc99_scanf(i8* getelementptr inbounds ([3 x i8], [3 x i8]* @.str, i64 0, i64 0), i32* %2)
  %9 = load i32, i32* %2, align 4
  %10 = zext i32 %9 to i64
  %11 = call i8* @llvm.stacksave()
  store i8* %11, i8** %5, align 8
  %12 = alloca [300 x i8], i64 %10, align 16
  store i64 %10, i64* %6, align 8
  store i32 0, i32* %3, align 4
  br label %13

13:                                               ; preds = %23, %0
  %14 = load i32, i32* %3, align 4
  %15 = load i32, i32* %2, align 4
  %16 = icmp slt i32 %14, %15
  br i1 %16, label %17, label %26

17:                                               ; preds = %13
  %18 = load i32, i32* %3, align 4
  %19 = sext i32 %18 to i64
  %20 = getelementptr inbounds [300 x i8], [300 x i8]* %12, i64 %19
  %21 = getelementptr inbounds [300 x i8], [300 x i8]* %20, i64 0, i64 0
  %22 = call i32 (i8*, ...) @__isoc99_scanf(i8* getelementptr inbounds ([3 x i8], [3 x i8]* @.str.1, i64 0, i64 0), i8* %21)
  br label %23

23:                                               ; preds = %17
  %24 = load i32, i32* %3, align 4
  %25 = add nsw i32 %24, 1
  store i32 %25, i32* %3, align 4
  br label %13

26:                                               ; preds = %13
  store i32 0, i32* %3, align 4
  br label %27

27:                                               ; preds = %61, %26
  %28 = load i32, i32* %3, align 4
  %29 = load i32, i32* %2, align 4
  %30 = icmp slt i32 %28, %29
  br i1 %30, label %31, label %64

31:                                               ; preds = %27
  store i32 0, i32* %4, align 4
  br label %32

32:                                               ; preds = %56, %31
  %33 = load i32, i32* %3, align 4
  %34 = sext i32 %33 to i64
  %35 = getelementptr inbounds [300 x i8], [300 x i8]* %12, i64 %34
  %36 = load i32, i32* %4, align 4
  %37 = sext i32 %36 to i64
  %38 = getelementptr inbounds [300 x i8], [300 x i8]* %35, i64 0, i64 %37
  %39 = load i8, i8* %38, align 1
  %40 = sext i8 %39 to i32
  %41 = icmp ne i32 %40, 0
  br i1 %41, label %42, label %54

42:                                               ; preds = %32
  %43 = load i32, i32* %3, align 4
  %44 = sext i32 %43 to i64
  %45 = getelementptr inbounds [300 x i8], [300 x i8]* %12, i64 %44
  %46 = load i32, i32* %4, align 4
  %47 = sext i32 %46 to i64
  %48 = getelementptr inbounds [300 x i8], [300 x i8]* %45, i64 0, i64 %47
  %49 = load i8, i8* %48, align 1
  %50 = call signext i8 @anti_base(i8 signext %49)
  store i8 %50, i8* %7, align 1
  %51 = load i8, i8* %7, align 1
  %52 = sext i8 %51 to i32
  %53 = call i32 (i8*, ...) @printf(i8* getelementptr inbounds ([3 x i8], [3 x i8]* @.str.2, i64 0, i64 0), i32 %52)
  br label %55

54:                                               ; preds = %32
  br label %59

55:                                               ; preds = %42
  br label %56

56:                                               ; preds = %55
  %57 = load i32, i32* %4, align 4
  %58 = add nsw i32 %57, 1
  store i32 %58, i32* %4, align 4
  br label %32

59:                                               ; preds = %54
  %60 = call i32 (i8*, ...) @printf(i8* getelementptr inbounds ([2 x i8], [2 x i8]* @.str.3, i64 0, i64 0))
  br label %61

61:                                               ; preds = %59
  %62 = load i32, i32* %3, align 4
  %63 = add nsw i32 %62, 1
  store i32 %63, i32* %3, align 4
  br label %27

64:                                               ; preds = %27
  %65 = load i8*, i8** %5, align 8
  call void @llvm.stackrestore(i8* %65)
  %66 = load i32, i32* %1, align 4
  ret i32 %66
}

declare dso_local i32 @__isoc99_scanf(i8*, ...) #1

; Function Attrs: nounwind
declare i8* @llvm.stacksave() #2

declare dso_local i32 @printf(i8*, ...) #1

; Function Attrs: nounwind
declare void @llvm.stackrestore(i8*) #2


!llvm.module.flags = !{!0}
!llvm.ident = !{!1}

!0 = !{i32 1, !"wchar_size", i32 4}
!1 = !{!"clang version 10.0.0-4ubuntu1 "}
